; Function Attrs: nofree norecurse nosync nounwind memory(write, argmem: readwrite, inaccessiblemem: none) uwtable
define hidden void @_mi_page_reclaim(ptr noundef %0, ptr noundef initializes((72, 88)) %1) local_unnamed_addr #4 {
  %3 = getelementptr i8, ptr %1, i64 40
  %.val = load i64, ptr %3, align 8, !tbaa !38
  %4 = add i64 %.val, 7
  %5 = lshr i64 %4, 3
  %6 = icmp ult i64 %4, 16
  br i1 %6, label %mi_page_queue.exit, label %7

7:                                                ; preds = %2
  %8 = icmp ult i64 %4, 72
  br i1 %8, label %9, label %12

9:                                                ; preds = %7
  %10 = add nuw nsw i64 %5, 1
  %11 = and i64 %10, 30
  br label %mi_page_queue.exit

12:                                               ; preds = %7
  %13 = icmp ugt i64 %4, 131079
  br i1 %13, label %mi_page_queue.exit, label %14

14:                                               ; preds = %12
  %15 = add nsw i64 %5, -1
  %16 = tail call range(i64 50, 61) i64 @llvm.ctlz.i64(i64 range(i64 8, 16384) %15, i1 true)
  %17 = shl nuw nsw i64 %16, 2
  %18 = xor i64 %17, 252
  %19 = sub nuw nsw i64 61, %16
  %20 = lshr i64 %15, %19
  %21 = and i64 %20, 3
  %22 = add nuw nsw i64 %18, 253
  %23 = add nuw nsw i64 %22, %21
  %24 = and i64 %23, 255
  br label %mi_page_queue.exit

mi_page_queue.exit:                               ; preds = %2, %9, %12, %14
  %.0.i.i.i = phi i64 [ %11, %9 ], [ %24, %14 ], [ 1, %2 ], [ 73, %12 ]
  %25 = getelementptr inbounds nuw i8, ptr %0, i64 1264
  %26 = getelementptr inbounds nuw [75 x %struct.mi_page_queue_s], ptr %25, i64 0, i64 %.0.i.i.i
  tail call fastcc void @mi_page_queue_push(ptr noundef %0, ptr noundef nonnull %26, ptr noundef nonnull %1) #14
  ret void
}